(dp0
Vall
p1
(lp2
(I28
I11
S'posts'
p3
tp4
a(I472
I1
S'comments'
p5
tp6
a(I1443
I4
S'comments'
p7
tp8
a(I3419
I0
S'comments'
p9
tp10
a(I15878
I1
S'comments'
p11
tp12
asVforget
p13
(lp14
(I509
I3
S'comments'
p15
tp16
asVgo
p17
(lp18
(I1172
I0
S'comments'
p19
tp20
asVnorr
p21
(lp22
(I8551
I5
S'comments'
p23
tp24
asVdecid
p25
(lp26
(I11117
I1
S'comments'
p27
tp28
asVdepend
p29
(lp30
(I500
I0
S'comments'
p31
tp32
asVto
p33
(lp34
(I18
I13
S'posts'
p35
tp36
a(I21
I3
S'posts'
p37
tp38
a(I21
I9
g37
tp39
a(I22
I18
S'posts'
p40
tp41
a(I28
I4
g3
tp42
a(I463
I4
S'comments'
p43
tp44
a(I463
I12
g43
tp45
a(I472
I4
g5
tp46
a(I46
I3
S'posts'
p47
tp48
a(I46
I5
g47
tp49
a(I46
I8
g47
tp50
a(I46
I15
g47
tp51
a(I3773
I1
S'comments'
p52
tp53
a(I53
I8
S'posts'
p54
tp55
a(I13430
I8
S'comments'
p56
tp57
a(I17076
I4
S'comments'
p58
tp59
asVprogram
p60
(lp61
(I18
I12
g35
tp62
asVfak
p63
(lp64
(I15756
I0
S'comments'
p65
tp66
asVexact
p67
(lp68
(I472
I8
g5
tp69
asVvast
p70
(lp71
(I18
I4
g35
tp72
asVcool
p73
(lp74
(I30
I22
S'posts'
p75
tp76
asVdie
p77
(lp78
(I1172
I1
g19
tp79
asVtry
p80
(lp81
(I17069
I0
S'comments'
p82
tp83
asVp
p84
(lp85
(I25
I4
S'posts'
p86
tp87
a(I459
I8
S'comments'
p88
tp89
a(I935
I7
S'comments'
p90
tp91
a(I1970
I5
S'comments'
p92
tp93
a(I13430
I11
g56
tp94
a(I14888
I7
S'comments'
p95
tp96
asVahahahaha
p97
(lp98
(I13430
I0
g56
tp99
asVguy
p100
(lp101
(I13607
I1
S'comments'
p102
tp103
asVtru
p104
(lp105
(I11293
I1
S'comments'
p106
tp107
a(I65
I3
S'posts'
p108
tp109
asVnatur
p110
(lp111
(I30
I11
g75
tp112
asVclick
p113
(lp114
(I13949
I14
S'comments'
p115
tp116
asVrath
p117
(lp118
(I28
I12
g3
tp119
asVwaffl
p120
(lp121
(I486
I3
S'comments'
p122
tp123
a(I1388
I2
S'comments'
p124
tp125
asVwhat
p126
(lp127
(I20
I11
S'posts'
p128
tp129
a(I21
I11
g37
tp130
a(I24
I5
S'posts'
p131
tp132
a(I31
I0
S'posts'
p133
tp134
a(I472
I7
g5
tp135
a(I2814
I2
S'comments'
p136
tp137
asVdelet
p138
(lp139
(I487
I0
S'comments'
p140
tp141
asVsur
p142
(lp143
(I27
I2
S'posts'
p144
tp145
asVnev
p146
(lp147
(I509
I2
g15
tp148
asVever
p149
(lp150
(I26
I6
S'posts'
p151
tp152
asVver
p153
(lp154
(I62
I1
S'posts'
p155
tp156
asVvalu
p157
(lp158
(I13076
I11
S'comments'
p159
tp160
asVsearch
p161
(lp162
(I26
I4
g151
tp163
asVrespon
p164
(lp165
(I11117
I24
g27
tp166
asVbor
p167
(lp168
(I2455
I2
S'comments'
p169
tp170
asVamount
p171
(lp172
(I30
I18
g75
tp173
asVcinnamon
p174
(lp175
(I53
I11
g54
tp176
a(I63
I5
S'posts'
p177
tp178
asVpermit
p179
(lp180
(I463
I11
g43
tp181
asVopinion
p182
(lp183
(I472
I6
g5
tp184
asVchang
p185
(lp186
(I11117
I28
g27
tp187
asVwin
p188
(lp189
(I485
I6
S'comments'
p190
tp191
asVvim
p192
(lp193
(I18
I0
g35
tp194
asVtotal
p195
(lp196
(I17087
I0
S'comments'
p197
tp198
asVuse
p199
(lp200
(I21
I4
g37
tp201
a(I28
I13
g3
tp202
asVfrom
p203
(lp204
(I503
I15
S'comments'
p205
tp206
asVwould
p207
(lp208
(I28
I10
g3
tp209
asVperk
p210
(lp211
(I30
I23
g75
tp212
asVbrow
p213
(lp214
(I28
I17
g3
tp215
asVignoranc
p216
(lp217
(I2455
I0
g169
tp218
asVdoor
p219
(lp220
(I8933
I12
S'comments'
p221
tp222
asVmajorit
p223
(lp224
(I24
I8
g131
tp225
asVreign
p226
(lp227
(I22
I9
g40
tp228
asVrabbit
p229
(lp230
(I1443
I2
g7
tp231
asVmust
p232
(lp233
(I29
I1
S'posts'
p234
tp235
asVcar
p236
(lp237
(I12772
I1
S'comments'
p238
tp239
asVuniqu
p240
(lp241
(I11117
I6
g27
tp242
asVcak
p243
(lp244
(I22
I3
g40
tp245
a(I22
I21
g40
tp246
asVcan
p247
(lp248
(I510
I2
S'comments'
p249
tp250
a(I510
I5
g249
tp251
a(I511
I3
S'comments'
p252
tp253
a(I1970
I2
g92
tp254
a(I3774
I1
S'comments'
p255
tp256
a(I8551
I1
g23
tp257
a(I8933
I9
g221
tp258
a(I14301
I2
S'comments'
p259
tp260
asVcam
p261
(lp262
(I31
I1
g133
tp263
a(I64
I10
S'posts'
p264
tp265
asVglorif
p266
(lp267
(I3772
I4
S'comments'
p268
tp269
asVcoffeeteahot
p270
(lp271
(I13211
I0
S'comments'
p272
tp273
asVmy
p274
(lp275
(I18
I15
g35
tp276
a(I482
I3
S'comments'
p277
tp278
a(I13949
I7
g115
tp279
a(I17075
I2
S'comments'
p280
tp281
asVmehh
p282
(lp283
(I14841
I0
S'comments'
p284
tp285
asVgeez
p286
(lp287
(I8933
I18
g221
tp288
asVchalleng
p289
(lp290
(I53
I12
g54
tp291
a(I63
I6
g177
tp292
asVtab
p293
(lp294
(I21
I0
g37
tp295
asVtak
p296
(lp297
(I53
I9
g54
tp298
a(I17076
I5
g58
tp299
asVend
p300
(lp301
(I2579
I4
S'comments'
p302
tp303
asVsit
p304
(lp305
(I491
I0
S'comments'
p306
tp307
a(I11117
I9
g27
tp308
asVhol
p309
(lp310
(I1443
I3
g7
tp311
asVhow
p312
(lp313
(I3774
I0
g255
tp314
asVshouldnt
p315
(lp316
(I46
I1
g47
tp317
a(I46
I13
g47
tp318
asVreferenc
p319
(lp320
(I30
I7
g75
tp321
asVmay
p322
(lp323
(I11117
I26
g27
tp324
asVbefor
p325
(lp326
(I463
I9
g43
tp327
asVwrong
p328
(lp329
(I8933
I6
g221
tp330
asVmak
p331
(lp332
(I27
I1
g144
tp333
asVman
p334
(lp335
(I13949
I13
g115
tp336
asVa
p337
(lp338
(I18
I11
g35
tp339
a(I18
I19
g35
tp340
a(I20
I3
g128
tp341
a(I20
I9
g128
tp342
a(I28
I14
g3
tp343
a(I503
I4
g205
tp344
a(I1787
I3
S'comments'
p345
tp346
a(I2579
I9
g302
tp347
a(I3772
I3
g268
tp348
a(I48
I2
S'posts'
p349
tp350
a(I7728
I2
S'comments'
p351
tp352
a(I11117
I5
g27
tp353
a(I14888
I3
g95
tp354
a(I64
I5
g264
tp355
asVrevolv
p356
(lp357
(I8933
I11
g221
tp358
asVso
p359
(lp360
(I3774
I7
g255
tp361
a(I8933
I2
g221
tp362
asVegg
p363
(lp364
(I31
I8
g133
tp365
a(I935
I6
g90
tp366
asVtalk
p367
(lp368
(I520
I1
S'comments'
p369
tp370
a(I1283
I2
S'comments'
p371
tp372
asVover
p373
(lp374
(I28
I18
g3
tp375
asVisnt
p376
(lp377
(I33
I7
S'posts'
p378
tp379
asVfff
p380
(lp381
(I5687
I0
S'comments'
p382
tp383
asVentitl
p384
(lp385
(I472
I3
g5
tp386
asVstill
p387
(lp388
(I24
I3
g131
tp389
asVits
p390
(lp391
(I30
I4
g75
tp392
a(I30
I16
g75
tp393
a(I536
I5
S'comments'
p394
tp395
a(I2579
I7
g302
tp396
a(I65
I2
g108
tp397
asVsuperior
p398
(lp399
(I18
I5
g35
tp400
asVgroup
p401
(lp402
(I536
I3
g394
tp403
a(I64
I1
g264
tp404
asVobviou
p405
(lp406
(I18
I2
g35
tp407
a(I28
I1
g3
tp408
asVimg
p409
(lp410
(I14343
I0
S'comments'
p411
tp412
asVpersonal
p413
(lp414
(I463
I6
g43
tp415
asVbackpack
p416
(lp417
(I20
I4
g128
tp418
a(I20
I10
g128
tp419
asVcondition
p420
(lp421
(I53
I22
g54
tp422
asVtherefor
p423
(lp424
(I9678
I12
S'comments'
p425
tp426
asVfil
p427
(lp428
(I18
I17
g35
tp429
asVgood
p430
(lp431
(I48
I3
g349
tp432
a(I64
I6
g264
tp433
asVthan
p434
(lp435
(I21
I5
g37
tp436
asVfood
p437
(lp438
(I30
I20
g75
tp439
asVspell
p440
(lp441
(I3774
I5
g255
tp442
asVmention
p443
(lp444
(I28
I5
g3
tp445
asVtwitt
p446
(lp447
(I8933
I15
g221
tp448
asVbeaut
p449
(lp450
(I17076
I7
g58
tp451
asVnot
p452
(lp453
(I18
I18
g35
tp454
a(I459
I11
g88
tp455
a(I481
I3
S'comments'
p456
tp457
a(I485
I2
g190
tp458
a(I2579
I8
g302
tp459
a(I14888
I1
g95
tp460
a(I62
I0
g155
tp461
asVdataba
p462
(lp463
(I510
I9
g249
tp464
asVnow
p465
(lp466
(I22
I14
g40
tp467
a(I13076
I6
g159
tp468
asVnop
p469
(lp470
(I17091
I0
S'comments'
p471
tp472
asVther
p473
(lp474
(I11117
I20
g27
tp475
asVbread
p476
(lp477
(I22
I2
g40
tp478
a(I22
I5
g40
tp479
a(I22
I24
g40
tp480
asVchoic
p481
(lp482
(I485
I1
g190
tp483
asVterm
p484
(lp485
(I53
I20
g54
tp486
asVedit
p487
(lp488
(I18
I14
g35
tp489
asVchuck
p490
(lp491
(I8551
I4
g23
tp492
asVanybod
p493
(lp494
(I53
I0
g54
tp495
asVfound
p496
(lp497
(I53
I1
g54
tp498
asVhard
p499
(lp500
(I23
I3
S'posts'
p501
tp502
a(I485
I0
g190
tp503
a(I62
I2
g155
tp504
asVyeah
p505
(lp506
(I486
I0
g122
tp507
a(I13607
I0
g102
tp508
asVultimat
p509
(lp510
(I8642
I6
S'comments'
p511
tp512
asVour
p513
(lp514
(I11117
I8
g27
tp515
asVtroll
p516
(lp517
(I461
I1
S'comments'
p518
tp519
a(I463
I0
g43
tp520
a(I463
I13
g43
tp521
a(I499
I3
S'comments'
p522
tp523
a(I502
I4
S'comments'
p524
tp525
a(I503
I1
g205
tp526
a(I504
I0
S'comments'
p527
tp528
a(I520
I0
g369
tp529
a(I1283
I1
g371
tp530
a(I8642
I2
g511
tp531
a(I15878
I3
g11
tp532
asVteacoffeemilomocha
p533
(lp534
(I6141
I2
S'comments'
p535
tp536
asVblu
p537
(lp538
(I1386
I1
S'comments'
p539
tp540
a(I1787
I0
g345
tp541
asValwa
p542
(lp543
(I485
I5
g190
tp544
asVcontent
p545
(lp546
(I2783
I4
S'comments'
p547
tp548
asVlaid
p549
(lp550
(I30
I0
g75
tp551
a(I30
I9
g75
tp552
asVinternet
p553
(lp554
(I509
I1
g15
tp555
asVreg
p556
(lp557
(I463
I5
g43
tp558
asVred
p559
(lp560
(I43
I0
S'posts'
p561
tp562
a(I1387
I0
S'comments'
p563
tp564
a(I1716
I0
S'comments'
p565
tp566
a(I1813
I0
S'comments'
p567
tp568
asVcarr
p569
(lp570
(I20
I8
g128
tp571
asVargu
p572
(lp573
(I22
I7
g40
tp574
a(I503
I17
g205
tp575
a(I46
I10
g47
tp576
a(I13076
I1
g159
tp577
a(I17087
I3
g197
tp578
asVkayla
p579
(lp580
(I1283
I3
g371
tp581
asVbeliev
p582
(lp583
(I60
I2
S'posts'
p584
tp585
asVask
p586
(lp587
(I18
I9
g35
tp588
asVpur
p589
(lp590
(I24
I0
g131
tp591
asVcould
p592
(lp593
(I32
I2
S'posts'
p594
tp595
asVprobab
p596
(lp597
(I28
I9
g3
tp598
asVyess
p599
(lp600
(I2541
I0
S'comments'
p601
tp602
asVthink
p603
(lp604
(I20
I14
g128
tp605
a(I21
I14
g37
tp606
a(I24
I9
g131
tp607
a(I25
I1
g86
tp608
a(I8933
I1
g221
tp609
asVfirst
p610
(lp611
(I31
I2
g133
tp612
asVdont
p613
(lp614
(I28
I2
g3
tp615
a(I483
I0
S'comments'
p616
tp617
a(I12772
I0
g238
tp618
a(I13430
I5
g56
tp619
asVonl
p620
(lp621
(I536
I7
g394
tp622
asVone
p623
(lp624
(I935
I1
g90
tp625
a(I13949
I8
g115
tp626
asVbitch
p627
(lp628
(I485
I7
g190
tp629
asVsuck
p630
(lp631
(I23
I1
g501
tp632
asVjonnyduh
p633
(lp634
(I3774
I9
g255
tp635
asVsystem
p636
(lp637
(I18
I22
g35
tp638
a(I483
I3
g616
tp639
a(I53
I4
g54
tp640
asVnotevil
p641
(lp642
(I30
I13
g75
tp643
asVtheir
p644
(lp645
(I472
I5
g5
tp646
asVtea
p647
(lp648
(I49
I0
S'posts'
p649
tp650
a(I5921
I0
S'comments'
p651
tp652
a(I6524
I2
S'comments'
p653
tp654
a(I12772
I4
g238
tp655
asVbanana
p656
(lp657
(I22
I1
g40
tp658
asVoption
p659
(lp660
(I536
I8
g394
tp661
asVthat
p662
(lp663
(I1283
I0
g371
tp664
a(I11117
I2
g27
tp665
a(I11117
I12
g27
tp666
a(I13430
I3
g56
tp667
a(I14888
I6
g95
tp668
asVtrolld
p669
(lp670
(I13076
I4
g159
tp671
asVnup
p672
(lp673
(I2556
I0
S'comments'
p674
tp675
asVantitroll
p676
(lp677
(I472
I10
g5
tp678
asVhaven
p679
(lp680
(I502
I5
g524
tp681
asVb
p682
(lp683
(I1717
I0
S'comments'
p684
tp685
a(I64
I8
g264
tp686
asVkeyword
p687
(lp688
(I9678
I1
g425
tp689
asVremov
p690
(lp691
(I503
I14
g205
tp692
asVbet
p693
(lp694
(I1970
I0
g92
tp695
asVand
p696
(lp697
(I21
I7
g37
tp698
a(I22
I13
g40
tp699
a(I30
I8
g75
tp700
a(I30
I21
g75
tp701
a(I503
I12
g205
tp702
a(I46
I11
g47
tp703
a(I11117
I11
g27
tp704
a(I53
I21
g54
tp705
a(I15756
I1
g65
tp706
a(I17076
I8
g58
tp707
asVslam
p708
(lp709
(I8933
I10
g221
tp710
asVminiatur
p711
(lp712
(I18
I20
g35
tp713
asVneed
p714
(lp715
(I28
I3
g3
tp716
a(I13430
I7
g56
tp717
asVseen
p718
(lp719
(I2579
I2
g302
tp720
asVany
p721
(lp722
(I503
I0
g205
tp723
asVscrew
p724
(lp725
(I53
I2
g54
tp726
asVengin
p727
(lp728
(I26
I5
g151
tp729
asVself
p730
(lp731
(I33
I8
g378
tp732
asVlik
p733
(lp734
(I486
I2
g122
tp735
a(I1388
I1
g124
tp736
a(I2814
I8
g136
tp737
a(I3773
I5
g52
tp738
a(I11117
I16
g27
tp739
a(I14888
I5
g95
tp740
asVsecurit
p741
(lp742
(I14301
I0
g259
tp743
asVwhich
p744
(lp745
(I37
I0
S'posts'
p746
tp747
asVsrchttpucpustaticjssvg
p748
(lp749
(I14343
I1
g411
tp750
asVcombat
p751
(lp752
(I13949
I11
g115
tp753
asVbett
p754
(lp755
(I37
I2
g746
tp756
a(I2783
I6
g547
tp757
asVusernam
p758
(lp759
(I482
I4
g277
tp760
asVwho
p761
(lp762
(I507
I0
S'comments'
p763
tp764
a(I53
I15
g54
tp765
asVmost
p766
(lp767
(I11117
I13
g27
tp768
asVunho
p769
(lp770
(I13949
I17
g115
tp771
asVtyp
p772
(lp773
(I463
I7
g43
tp774
a(I503
I6
g205
tp775
a(I935
I4
g90
tp776
asVwhy
p777
(lp778
(I465
I0
S'comments'
p779
tp780
asVwowheadcom
p781
(lp782
(I3773
I6
g52
tp783
asVdoe
p784
(lp785
(I24
I6
g131
tp786
asVawesom
p787
(lp788
(I49
I3
g649
tp789
asVbomb
p790
(lp791
(I5921
I3
g651
tp792
asVshow
p793
(lp794
(I482
I2
g277
tp795
asVtext
p796
(lp797
(I18
I6
g35
tp798
a(I18
I16
g35
tp799
a(I28
I15
g3
tp800
asVchicken
p801
(lp802
(I31
I4
g133
tp803
asVruin
p804
(lp805
(I8642
I4
g511
tp806
a(I17076
I9
g58
tp807
asVenough
p808
(lp809
(I22
I12
g40
tp810
asVshould
p811
(lp812
(I463
I1
g43
tp813
a(I2286
I1
S'comments'
p814
tp815
a(I63
I0
g177
tp816
asVjam
p817
(lp818
(I1787
I5
g345
tp819
a(I8551
I8
g23
tp820
a(I9678
I10
g425
tp821
a(I63
I1
g177
tp822
asVdo
p823
(lp824
(I20
I0
g128
tp825
a(I20
I6
g128
tp826
a(I20
I12
g128
tp827
a(I21
I12
g37
tp828
a(I2814
I3
g136
tp829
a(I2814
I5
g136
tp830
a(I60
I0
g584
tp831
a(I63
I3
g177
tp832
asVhis
p833
(lp834
(I503
I10
g205
tp835
asVget
p836
(lp837
(I459
I3
g88
tp838
asVda
p839
(lp840
(I5921
I2
g651
tp841
asVoner
p842
(lp843
(I64
I2
g264
tp844
asVdr
p845
(lp846
(I8933
I7
g221
tp847
asVhim
p848
(lp849
(I60
I3
g584
tp850
asVrequir
p851
(lp852
(I463
I3
g43
tp853
asVbas
p854
(lp855
(I28
I16
g3
tp856
asVbad
p857
(lp858
(I3774
I8
g255
tp859
a(I7728
I3
g351
tp860
asVban
p861
(lp862
(I481
I4
g456
tp863
a(I481
I7
g456
tp864
asVprett
p865
(lp866
(I23
I2
g501
tp867
a(I49
I2
g649
tp868
asVoverwhelm
p869
(lp870
(I11117
I23
g27
tp871
asVwrot
p872
(lp873
(I459
I6
g88
tp874
asVsee
p875
(lp876
(I21
I10
g37
tp877
a(I39
I0
S'posts'
p878
tp879
asVare
p880
(lp881
(I21
I1
g37
tp882
a(I472
I2
g5
tp883
a(I472
I9
g5
tp884
a(I1787
I1
g345
tp885
a(I9678
I8
g425
tp886
a(I53
I17
g54
tp887
a(I17075
I1
g280
tp888
asVfail
p889
(lp890
(I3774
I3
g255
tp891
a(I16482
I0
S'comments'
p892
tp893
asVbest
p894
(lp895
(I26
I3
g151
tp896
a(I459
I13
g88
tp897
asVsometh
p898
(lp899
(I3774
I6
g255
tp900
a(I17076
I6
g58
tp901
asVorgasmic
p902
(lp903
(I469
I0
S'comments'
p904
tp905
asVwoo
p906
(lp907
(I478
I0
S'comments'
p908
tp909
asVwe
p910
(lp911
(I28
I0
g3
tp912
a(I28
I8
g3
tp913
a(I29
I0
g234
tp914
a(I486
I1
g122
tp915
a(I502
I2
g524
tp916
a(I510
I4
g249
tp917
a(I510
I6
g249
tp918
a(I511
I2
g252
tp919
a(I53
I13
g54
tp920
a(I13430
I4
g56
tp921
a(I60
I1
g584
tp922
asVwear
p923
(lp924
(I20
I2
g128
tp925
a(I20
I18
g128
tp926
asVsolv
p927
(lp928
(I22
I19
g40
tp929
asVjc
p930
(lp931
(I8933
I8
g221
tp932
asVboth
p933
(lp934
(I2814
I9
g136
tp935
asVequal
p936
(lp937
(I2814
I10
g136
tp938
asVweath
p939
(lp940
(I500
I3
g31
tp941
asVoperat
p942
(lp943
(I18
I21
g35
tp944
asVimprov
p945
(lp946
(I14301
I4
g259
tp947
asVcom
p948
(lp949
(I503
I11
g205
tp950
a(I46
I4
g47
tp951
a(I13949
I9
g115
tp952
a(I17075
I3
g280
tp953
asVpow
p954
(lp955
(I478
I2
g908
tp956
asVexploit
p957
(lp958
(I483
I1
g616
tp959
asVtrust
p960
(lp961
(I17076
I2
g58
tp962
asVquit
p963
(lp964
(I6141
I0
g535
tp965
asVyay
p966
(lp967
(I20
I16
g128
tp968
a(I22
I23
g40
tp969
a(I31
I5
g133
tp970
a(I33
I0
g378
tp971
a(I37
I3
g746
tp972
a(I481
I1
g456
tp973
a(I43
I3
g561
tp974
asVdun
p975
(lp976
(I499
I0
g522
tp977
asVdud
p978
(lp979
(I17087
I1
g197
tp980
asVbeen
p981
(lp982
(I13076
I3
g159
tp983
asVmuch
p984
(lp985
(I12772
I2
g238
tp986
asVdamn
p987
(lp988
(I461
I0
g518
tp989
asVexplanator
p990
(lp991
(I33
I9
g378
tp992
asVaerg
p993
(lp994
(I61
I0
S'posts'
p995
tp996
asVgay
p997
(lp998
(I15756
I2
g65
tp999
asVatlassian
p1000
(lp1001
(I30
I2
g75
tp1002
asVgam
p1003
(lp1004
(I3772
I10
g268
tp1005
asVquick
p1006
(lp1007
(I14301
I5
g259
tp1008
asVlook
p1009
(lp1010
(I459
I1
g88
tp1011
asVwill
p1012
(lp1013
(I482
I0
g277
tp1014
a(I503
I8
g205
tp1015
a(I11117
I15
g27
tp1016
a(I53
I5
g54
tp1017
a(I13949
I1
g115
tp1018
a(I13949
I10
g115
tp1019
asVeveryon
p1020
(lp1021
(I536
I1
g394
tp1022
a(I17076
I12
g58
tp1023
asVis
p1024
(lp1025
(I18
I1
g35
tp1026
a(I22
I0
g40
tp1027
a(I22
I16
g40
tp1028
a(I25
I3
g86
tp1029
a(I26
I0
g151
tp1030
a(I33
I3
g378
tp1031
a(I37
I1
g746
tp1032
a(I481
I0
g456
tp1033
a(I48
I0
g349
tp1034
a(I49
I1
g649
tp1035
a(I5921
I1
g651
tp1036
a(I7728
I1
g351
tp1037
a(I9678
I5
g425
tp1038
a(I11117
I4
g27
tp1039
a(I11117
I21
g27
tp1040
a(I11293
I0
g106
tp1041
a(I13076
I8
g159
tp1042
asVit
p1043
(lp1044
(I22
I15
g40
tp1045
a(I22
I20
g40
tp1046
a(I25
I2
g86
tp1047
a(I28
I19
g3
tp1048
a(I33
I2
g378
tp1049
a(I33
I6
g378
tp1050
a(I459
I0
g88
tp1051
a(I459
I4
g88
tp1052
a(I1970
I4
g92
tp1053
a(I48
I1
g349
tp1054
a(I7728
I0
g351
tp1055
a(I11117
I17
g27
tp1056
a(I11117
I25
g27
tp1057
a(I13076
I7
g159
tp1058
a(I17076
I10
g58
tp1059
asVvot
p1060
(lp1061
(I20
I15
g128
tp1062
a(I503
I13
g205
tp1063
a(I46
I16
g47
tp1064
asVin
p1065
(lp1066
(I536
I2
g394
tp1067
a(I46
I7
g47
tp1068
a(I9678
I2
g425
tp1069
a(I13430
I10
g56
tp1070
asVie
p1071
(lp1072
(I28
I6
g3
tp1073
asVif
p1074
(lp1075
(I32
I0
g594
tp1076
a(I2814
I6
g136
tp1077
a(I8551
I2
g23
tp1078
a(I11117
I19
g27
tp1079
asVhilariou
p1080
(lp1081
(I30
I5
g75
tp1082
asVquirk
p1083
(lp1084
(I463
I8
g43
tp1085
a(I503
I7
g205
tp1086
asVsnail
p1087
(lp1088
(I14888
I0
g95
tp1089
asVlie
p1090
(lp1091
(I2579
I10
g302
tp1092
a(I9895
I0
S'comments'
p1093
tp1094
a(I10270
I0
S'comments'
p1095
tp1096
asVnic
p1097
(lp1098
(I459
I2
g88
tp1099
asVdrink
p1100
(lp1101
(I5921
I5
g651
tp1102
a(I13211
I4
g272
tp1103
asVsomeon
p1104
(lp1105
(I1970
I1
g92
tp1106
a(I3774
I2
g255
tp1107
asVrain
p1108
(lp1109
(I466
I1
S'comments'
p1110
tp1111
a(I480
I1
S'comments'
p1112
tp1113
asVportal
p1114
(lp1115
(I30
I6
g75
tp1116
a(I2783
I0
g547
tp1117
a(I2858
I0
S'comments'
p1118
tp1119
a(I3772
I0
g268
tp1120
asVuser
p1121
(lp1122
(I11117
I14
g27
tp1123
asVcocoa
p1124
(lp1125
(I478
I1
g908
tp1126
asVoff
p1127
(lp1128
(I11117
I10
g27
tp1129
asVi
p1130
(lp1131
(I18
I8
g35
tp1132
a(I25
I0
g86
tp1133
a(I502
I0
g524
tp1134
a(I1388
I0
g124
tp1135
a(I2579
I0
g302
tp1136
a(I2814
I4
g136
tp1137
a(I2814
I7
g136
tp1138
a(I6524
I0
g653
tp1139
a(I13949
I0
g115
tp1140
asVwell
p1141
(lp1142
(I510
I3
g249
tp1143
asVthought
p1144
(lp1145
(I502
I1
g524
tp1146
asVwithout
p1147
(lp1148
(I503
I3
g205
tp1149
asVthi
p1150
(lp1151
(I29
I3
g234
tp1152
a(I482
I1
g277
tp1153
a(I3773
I2
g52
tp1154
a(I11117
I3
g27
tp1155
a(I13076
I0
g159
tp1156
asVchocolat
p1157
(lp1158
(I37
I5
g746
tp1159
a(I466
I0
g1110
tp1160
a(I467
I0
S'comments'
p1161
tp1162
a(I471
I0
S'comments'
p1163
tp1164
a(I480
I0
g1112
tp1165
a(I485
I4
g190
tp1166
asVthe
p1167
(lp1168
(I18
I3
g35
tp1169
a(I22
I6
g40
tp1170
a(I24
I7
g131
tp1171
a(I26
I2
g151
tp1172
a(I31
I3
g133
tp1173
a(I31
I7
g133
tp1174
a(I459
I12
g88
tp1175
a(I465
I1
g779
tp1176
a(I483
I2
g616
tp1177
a(I503
I16
g205
tp1178
a(I509
I0
g15
tp1179
a(I510
I8
g249
tp1180
a(I536
I6
g394
tp1181
a(I935
I3
g90
tp1182
a(I1443
I1
g7
tp1183
a(I1443
I5
g7
tp1184
a(I2579
I3
g302
tp1185
a(I46
I9
g47
tp1186
a(I3772
I9
g268
tp1187
a(I8642
I5
g511
tp1188
a(I9678
I0
g425
tp1189
a(I9678
I3
g425
tp1190
a(I53
I3
g54
tp1191
a(I53
I10
g54
tp1192
a(I53
I19
g54
tp1193
a(I13949
I3
g115
tp1194
a(I13949
I12
g115
tp1195
a(I13949
I16
g115
tp1196
a(I55
I2
S'posts'
p1197
tp1198
a(I15878
I2
g11
tp1199
a(I63
I4
g177
tp1200
asVcour
p1201
(lp1202
(I462
I1
S'comments'
p1203
tp1204
a(I2579
I6
g302
tp1205
asVjust
p1206
(lp1207
(I27
I0
g144
tp1208
a(I3773
I4
g52
tp1209
a(I8933
I13
g221
tp1210
asVbeing
p1211
(lp1212
(I463
I10
g43
tp1213
a(I3419
I2
g9
tp1214
asVkill
p1215
(lp1216
(I536
I0
g394
tp1217
a(I1970
I3
g92
tp1218
asVhuman
p1219
(lp1220
(I17076
I3
g58
tp1221
asVyes
p1222
(lp1223
(I484
I0
S'comments'
p1224
tp1225
a(I510
I0
g249
tp1226
a(I2617
I0
S'comments'
p1227
tp1228
a(I16723
I0
S'comments'
p1229
tp1230
asVyet
p1231
(lp1232
(I459
I14
g88
tp1233
asVshhh
p1234
(lp1235
(I13607
I2
g102
tp1236
asVwer
p1237
(lp1238
(I502
I3
g524
tp1239
a(I64
I3
g264
tp1240
asVwev
p1241
(lp1242
(I11117
I0
g27
tp1243
asVhas
p1244
(lp1245
(I22
I8
g40
tp1246
a(I2783
I2
g547
tp1247
a(I13076
I2
g159
tp1248
asVpill
p1249
(lp1250
(I43
I1
g561
tp1251
a(I1387
I1
g563
tp1252
a(I1813
I1
g567
tp1253
asVhav
p1254
(lp1255
(I503
I9
g205
tp1256
a(I2579
I1
g302
tp1257
a(I46
I2
g47
tp1258
a(I46
I14
g47
tp1259
a(I64
I4
g264
tp1260
asVreal
p1261
(lp1262
(I485
I3
g190
tp1263
asVmayb
p1264
(lp1265
(I508
I0
S'comments'
p1266
tp1267
asVread
p1268
(lp1269
(I53
I18
g54
tp1270
asVmor
p1271
(lp1272
(I2783
I3
g547
tp1273
asVknow
p1274
(lp1275
(I53
I14
g54
tp1276
a(I13430
I2
g56
tp1277
a(I65
I1
g108
tp1278
asVmeasur
p1279
(lp1280
(I472
I11
g5
tp1281
asVd
p1282
(lp1283
(I480
I2
g1112
tp1284
a(I6524
I3
g653
tp1285
asVspecif
p1286
(lp1287
(I935
I2
g90
tp1288
asVresolv
p1289
(lp1290
(I29
I2
g234
tp1291
asVxbox
p1292
(lp1293
(I24
I10
g131
tp1294
asVsoft
p1295
(lp1296
(I13211
I3
g272
tp1297
asVold
p1298
(lp1299
(I29
I5
g234
tp1300
asVcurran
p1301
(lp1302
(I8551
I9
g23
tp1303
a(I9678
I11
g425
tp1304
a(I63
I2
g177
tp1305
asVback
p1306
(lp1307
(I30
I1
g75
tp1308
a(I30
I10
g75
tp1309
asVsight
p1310
(lp1311
(I459
I7
g88
tp1312
asVtutorial
p1313
(lp1314
(I3772
I5
g268
tp1315
asVmood
p1316
(lp1317
(I500
I2
g31
tp1318
asVfor
p1319
(lp1320
(I18
I10
g35
tp1321
a(I20
I17
g128
tp1322
a(I22
I10
g40
tp1323
a(I37
I4
g746
tp1324
a(I3772
I6
g268
tp1325
a(I8933
I16
g221
tp1326
a(I12772
I3
g238
tp1327
a(I17076
I11
g58
tp1328
asVconfirm
p1329
(lp1330
(I8933
I17
g221
tp1331
asVdefinit
p1332
(lp1333
(I2858
I2
g1118
tp1334
asVprop
p1335
(lp1336
(I503
I5
g205
tp1337
asVepic
p1338
(lp1339
(I30
I17
g75
tp1340
asVbe
p1341
(lp1342
(I463
I2
g43
tp1343
a(I499
I1
g522
tp1344
a(I2286
I2
g814
tp1345
a(I8933
I5
g221
tp1346
a(I11117
I27
g27
tp1347
a(I53
I6
g54
tp1348
a(I14301
I3
g259
tp1349
asVps
p1350
(lp1351
(I24
I12
g131
tp1352
asVburn
p1353
(lp1354
(I55
I0
g1197
tp1355
a(I15878
I0
g11
tp1356
asVstem
p1357
(lp1358
(I13949
I2
g115
tp1359
asVpost
p1360
(lp1361
(I503
I2
g205
tp1362
asVon
p1363
(lp1364
(I500
I1
g31
tp1365
asVabout
p1366
(lp1367
(I3419
I1
g9
tp1368
asVchoc
p1369
(lp1370
(I13211
I1
g272
tp1371
asVactual
p1372
(lp1373
(I13430
I6
g56
tp1374
asVoh
p1375
(lp1376
(I2814
I0
g136
tp1377
asVof
p1378
(lp1379
(I30
I19
g75
tp1380
a(I462
I0
g1203
tp1381
a(I935
I5
g90
tp1382
a(I2579
I5
g302
tp1383
a(I3772
I8
g268
tp1384
a(I5921
I4
g651
tp1385
a(I13076
I9
g159
tp1386
a(I13949
I5
g115
tp1387
a(I13949
I15
g115
tp1388
asVor
p1389
(lp1390
(I20
I5
g128
tp1391
a(I22
I4
g40
tp1392
a(I24
I11
g131
tp1393
a(I30
I12
g75
tp1394
a(I31
I6
g133
tp1395
a(I8551
I7
g23
tp1396
asVown
p1397
(lp1398
(I510
I7
g249
tp1399
asVyoud
p1400
(lp1401
(I8933
I0
g221
tp1402
a(I8933
I4
g221
tp1403
asVdown
p1404
(lp1405
(I1443
I0
g7
tp1406
asVdoesnt
p1407
(lp1408
(I507
I1
g763
tp1409
asVbadbadbad
p1410
(lp1411
(I10979
I0
S'comments'
p1412
tp1413
asVyour
p1414
(lp1415
(I8551
I3
g23
tp1416
a(I8642
I3
g511
tp1417
asVlog
p1418
(lp1419
(I13430
I9
g56
tp1420
asVspam
p1421
(lp1422
(I465
I2
g779
tp1423
a(I487
I1
g140
tp1424
asVspac
p1425
(lp1426
(I21
I6
g37
tp1427
asVquestion
p1428
(lp1429
(I29
I6
g234
tp1430
a(I8642
I7
g511
tp1431
a(I9678
I4
g425
tp1432
asVlong
p1433
(lp1434
(I22
I11
g40
tp1435
asVtrolyness
p1436
(lp1437
(I13949
I6
g115
tp1438
asVlov
p1439
(lp1440
(I6524
I1
g653
tp1441
asVeditor
p1442
(lp1443
(I18
I7
g35
tp1444
asVway
p1445
(lp1446
(I1443
I6
g7
tp1447
a(I46
I6
g47
tp1448
asVgil
p1449
(lp1450
(I8642
I0
g511
tp1451
asVwas
p1452
(lp1453
(I3772
I2
g268
tp1454
asVforc
p1455
(lp1456
(I53
I7
g54
tp1457
asVgreat
p1458
(lp1459
(I17087
I2
g197
tp1460
asVbut
p1461
(lp1462
(I24
I2
g131
tp1463
a(I459
I9
g88
tp1464
a(I511
I1
g252
tp1465
a(I6141
I1
g535
tp1466
a(I8933
I3
g221
tp1467
a(I11117
I18
g27
tp1468
asVidea
p1469
(lp1470
(I48
I4
g349
tp1471
a(I7728
I4
g351
tp1472
asVeas
p1473
(lp1474
(I21
I2
g37
tp1475
a(I21
I8
g37
tp1476
asVwith
p1477
(lp1478
(I30
I3
g75
tp1479
a(I30
I15
g75
tp1480
a(I14888
I2
g95
tp1481
asVhe
p1482
(lp1483
(I23
I0
g501
tp1484
asVopinionat
p1485
(lp1486
(I24
I1
g131
tp1487
a(I3419
I3
g9
tp1488
asVus
p1489
(lp1490
(I64
I0
g264
tp1491
asVsadness
p1492
(lp1493
(I464
I0
S'comments'
p1494
tp1495
asVfeatur
p1496
(lp1497
(I11117
I7
g27
tp1498
a(I14301
I1
g259
tp1499
asVcertain
p1500
(lp1501
(I459
I10
g88
tp1502
asVan
p1503
(lp1504
(I11117
I22
g27
tp1505
asVas
p1506
(lp1507
(I28
I7
g3
tp1508
asVat
p1509
(lp1510
(I3774
I4
g255
tp1511
a(I55
I1
g1197
tp1512
asVind
p1513
(lp1514
(I17076
I0
g58
tp1515
asVcheck
p1516
(lp1517
(I8933
I14
g221
tp1518
asVgoogl
p1519
(lp1520
(I26
I1
g151
tp1521
a(I30
I14
g75
tp1522
asVno
p1523
(lp1524
(I472
I0
g5
tp1525
a(I511
I0
g252
tp1526
a(I935
I0
g90
tp1527
a(I2814
I1
g136
tp1528
a(I5916
I0
S'comments'
p1529
tp1530
a(I9678
I9
g425
tp1531
a(I9678
I13
g425
tp1532
a(I13076
I10
g159
tp1533
asVtitl
p1534
(lp1535
(I39
I1
g878
tp1536
asVne
p1537
(lp1538
(I1386
I0
g539
tp1539
asVnam
p1540
(lp1541
(I14888
I4
g95
tp1542
asVwher
p1543
(lp1544
(I17075
I0
g280
tp1545
asVtim
p1546
(lp1547
(I22
I17
g40
tp1548
a(I64
I7
g264
tp1549
asVtid
p1550
(lp1551
(I13949
I4
g115
tp1552
asVyou
p1553
(lp1554
(I20
I1
g128
tp1555
a(I20
I7
g128
tp1556
a(I20
I13
g128
tp1557
a(I21
I13
g37
tp1558
a(I32
I1
g594
tp1559
a(I459
I5
g88
tp1560
a(I510
I1
g249
tp1561
a(I1787
I2
g345
tp1562
a(I2286
I0
g814
tp1563
a(I46
I0
g47
tp1564
a(I46
I12
g47
tp1565
a(I8551
I0
g23
tp1566
a(I8642
I1
g511
tp1567
a(I9678
I6
g425
tp1568
a(I9678
I7
g425
tp1569
a(I53
I16
g54
tp1570
a(I13430
I1
g56
tp1571
a(I65
I0
g108
tp1572
asVnay
p1573
(lp1574
(I22
I26
g40
tp1575
a(I31
I9
g133
tp1576
a(I33
I4
g378
tp1577
a(I481
I5
g456
tp1578
asVstak
p1579
(lp1580
(I55
I3
g1197
tp1581
asVpuss
p1582
(lp1583
(I1787
I4
g345
tp1584
asVsilleh
p1585
(lp1586
(I499
I2
g522
tp1587
asVage
p1588
(lp1589
(I29
I4
g234
tp1590
asVu
p1591
(lp1592
(I64
I9
g264
tp1593
as.